(lp0
ccopy_reg
_reconstructor
p1
(c__main__
Vozila
p2
c__builtin__
object
p3
Ntp4
Rp5
(dp6
S'st_km'
p7
S'213456'
p8
sS'model'
p9
S'ceed'
p10
sS'znamka'
p11
S'kia'
p12
sS'datum_servisa'
p13
S'3.6.2000'
p14
sbag1
(g2
g3
Ntp15
Rp16
(dp17
g7
S'2134567'
p18
sg9
S'500'
p19
sg11
S'fiat'
p20
sg13
S'3.4.1998'
p21
sba.